; Function Attrs: nofree nounwind uwtable
define range(i64 0, 4294967296) i64 @zfp_encode_block_strided_double_2(ptr noundef readonly captures(none) %0, ptr noundef readonly captures(none) %1, i64 noundef %2, i64 noundef %3) local_unnamed_addr #0 {
  %5 = alloca [16 x double], align 256
  call void @llvm.lifetime.start.p0(i64 128, ptr nonnull %5) #11
  %6 = shl nsw i64 %2, 2
  %7 = sub nsw i64 %3, %6
  br label %.preheader.i

.preheader.i:                                     ; preds = %13, %4
  %.019.i = phi i32 [ 0, %4 ], [ %14, %13 ]
  %.01118.i = phi ptr [ %5, %4 ], [ %10, %13 ]
  %.01217.i = phi ptr [ %1, %4 ], [ %15, %13 ]
  br label %8

8:                                                ; preds = %8, %.preheader.i
  %.01016.i = phi i32 [ 0, %.preheader.i ], [ %11, %8 ]
  %.115.i = phi ptr [ %.01118.i, %.preheader.i ], [ %10, %8 ]
  %.11314.i = phi ptr [ %.01217.i, %.preheader.i ], [ %12, %8 ]
  %9 = load double, ptr %.11314.i, align 8, !tbaa !12
  %10 = getelementptr inbounds nuw i8, ptr %.115.i, i64 8
  store double %9, ptr %.115.i, align 8, !tbaa !12
  %11 = add nuw nsw i32 %.01016.i, 1
  %12 = getelementptr inbounds double, ptr %.11314.i, i64 %2
  %exitcond.not.i = icmp eq i32 %11, 4
  br i1 %exitcond.not.i, label %13, label %8

13:                                               ; preds = %8
  %14 = add nuw nsw i32 %.019.i, 1
  %15 = getelementptr inbounds double, ptr %12, i64 %7
  %exitcond21.not.i = icmp eq i32 %14, 4
  br i1 %exitcond21.not.i, label %gather_double_2.exit, label %.preheader.i

gather_double_2.exit:                             ; preds = %13
  %16 = call i64 @zfp_encode_block_double_2(ptr noundef %0, ptr noundef nonnull %5)
  call void @llvm.lifetime.end.p0(i64 128, ptr nonnull %5) #11
  ret i64 %16
}